Certificate:
    Data:
        Version: 3 (0x2)
        Serial Number: 7 (0x7)
    Signature Algorithm: sha1WithRSAEncryption
        Issuer: DC=org, DC=simple, O=Simple Inc, OU=Simple Signing CA, CN=Simple Signing CA
        Validity
            Not Before: Feb 15 07:22:23 2018 GMT
            Not After : Feb 15 07:22:23 2020 GMT
        Subject: CN=127.0.0.1
        Subject Public Key Info:
            Public Key Algorithm: rsaEncryption
                Public-Key: (2048 bit)
                Modulus:
                    00:9a:f7:62:f0:80:21:4e:12:e0:1b:6e:39:fa:ee:
                    fd:15:af:ba:1e:4c:d8:fe:c8:0a:8d:0b:40:5b:86:
                    fc:68:8d:3f:b1:70:92:fd:f5:54:d5:54:4e:67:d1:
                    7f:5e:7d:ef:ab:e2:3f:30:01:a9:ec:a7:e0:3e:9c:
                    bf:57:d7:b7:38:a9:cb:58:04:3c:bb:64:3d:cd:b6:
                    a0:e3:af:1e:82:f0:b0:44:0d:2a:20:eb:f0:ce:89:
                    80:de:f1:70:46:1e:0a:48:6a:28:af:e0:32:28:f4:
                    2b:aa:e4:d9:e7:6b:bf:0e:fc:00:16:49:35:65:78:
                    6b:c4:4a:e8:dd:83:90:d5:36:33:2a:7d:89:f5:42:
                    e9:0f:f9:26:35:eb:52:bd:99:23:23:97:b0:da:b9:
                    24:bd:21:ef:ed:38:2b:77:80:70:26:d2:98:8b:4a:
                    b7:73:5d:44:f7:8b:f4:03:77:4a:95:62:32:da:e4:
                    fe:38:81:a6:ed:33:8a:e1:25:34:28:82:c0:e0:95:
                    c4:3d:03:29:1b:79:96:db:40:c8:c5:6e:6e:26:e2:
                    08:5b:99:d4:ed:11:a0:34:59:26:89:50:17:3f:0d:
                    7e:c7:ed:38:4c:f0:85:6f:63:19:cc:1c:fe:63:37:
                    2b:ac:9b:d3:f3:7b:9c:3c:ac:8a:17:46:39:5d:42:
                    b1:31
                Exponent: 65537 (0x10001)
        X509v3 extensions:
            X509v3 Key Usage: critical
                Digital Signature, Key Encipherment
            X509v3 Basic Constraints: 
                CA:FALSE
            X509v3 Extended Key Usage: 
                TLS Web Server Authentication, TLS Web Client Authentication
            X509v3 Subject Key Identifier: 
                C2:00:37:62:4A:6D:DA:C8:1A:AC:88:B7:0D:C5:C8:BB:9C:A7:1B:BA
            X509v3 Authority Key Identifier: 
                keyid:83:1C:6A:53:0B:B4:76:15:9D:9A:8D:7B:39:2B:72:CD:A4:C0:69:E3

            X509v3 Subject Alternative Name: 
                IP Address:127.0.0.1
    Signature Algorithm: sha1WithRSAEncryption
         95:16:42:5d:b5:3e:0a:eb:75:ba:59:33:21:69:ba:d2:64:94:
         3f:88:92:90:60:85:3e:f8:eb:8f:8e:15:c0:44:64:d9:95:e2:
         ad:f2:da:71:c4:32:9f:94:86:13:a4:9b:b9:85:79:3e:76:8f:
         51:61:1e:88:c1:cf:1a:4e:bb:c2:ba:c8:a7:3e:8b:cf:7c:22:
         58:a7:b8:bd:93:2e:f9:10:74:81:1e:11:c9:74:19:f3:e7:41:
         fe:98:f4:fa:bb:c9:97:fe:b8:0b:a3:93:7e:94:1d:5e:f7:b1:
         19:3b:13:e0:c9:fe:5a:10:8c:5a:3c:75:59:0d:65:f3:ac:58:
         6b:bb:29:d3:27:e1:40:94:e4:bd:fd:17:c7:11:20:3e:5d:66:
         66:e4:a3:8a:f9:5e:5a:da:ee:71:91:1c:5a:05:e9:bc:19:a9:
         88:9c:4a:41:27:3b:c4:d0:76:55:57:ee:c3:f4:04:57:a3:57:
         08:0f:30:1e:e2:5c:90:c9:01:12:ed:e1:6a:05:3d:5f:94:57:
         87:35:8b:c4:1a:7e:49:16:d6:1f:81:5c:15:5c:fa:13:58:22:
         2e:4c:05:f0:1d:89:6c:32:a3:f4:cc:ce:20:4b:67:ea:38:3e:
         b5:fb:77:00:0c:c5:4d:ac:9d:8c:8d:a1:fd:e1:ea:8e:c8:c0:
         3c:af:78:fc
-----BEGIN CERTIFICATE-----
MIIDmDCCAoCgAwIBAgIBBzANBgkqhkiG9w0BAQUFADB6MRMwEQYKCZImiZPyLGQB
GRYDb3JnMRYwFAYKCZImiZPyLGQBGRYGc2ltcGxlMRMwEQYDVQQKDApTaW1wbGUg
SW5jMRowGAYDVQQLDBFTaW1wbGUgU2lnbmluZyBDQTEaMBgGA1UEAwwRU2ltcGxl
IFNpZ25pbmcgQ0EwHhcNMTgwMjE1MDcyMjIzWhcNMjAwMjE1MDcyMjIzWjAUMRIw
EAYDVQQDDAkxMjcuMC4wLjEwggEiMA0GCSqGSIb3DQEBAQUAA4IBDwAwggEKAoIB
AQCa92LwgCFOEuAbbjn67v0Vr7oeTNj+yAqNC0BbhvxojT+xcJL99VTVVE5n0X9e
fe+r4j8wAansp+A+nL9X17c4qctYBDy7ZD3NtqDjrx6C8LBEDSog6/DOiYDe8XBG
HgpIaiiv4DIo9Cuq5Nnna78O/AAWSTVleGvESujdg5DVNjMqfYn1QukP+SY161K9
mSMjl7DauSS9Ie/tOCt3gHAm0piLSrdzXUT3i/QDd0qVYjLa5P44gabtM4rhJTQo
gsDglcQ9AykbeZbbQMjFbm4m4ghbmdTtEaA0WSaJUBc/DX7H7ThM8IVvYxnMHP5j
Nyusm9Pze5w8rIoXRjldQrExAgMBAAGjgY4wgYswDgYDVR0PAQH/BAQDAgWgMAkG
A1UdEwQCMAAwHQYDVR0lBBYwFAYIKwYBBQUHAwEGCCsGAQUFBwMCMB0GA1UdDgQW
BBTCADdiSm3ayBqsiLcNxci7nKcbujAfBgNVHSMEGDAWgBSDHGpTC7R2FZ2ajXs5
K3LNpMBp4zAPBgNVHREECDAGhwR/AAABMA0GCSqGSIb3DQEBBQUAA4IBAQCVFkJd
tT4K63W6WTMhabrSZJQ/iJKQYIU++OuPjhXARGTZleKt8tpxxDKflIYTpJu5hXk+
do9RYR6Iwc8aTrvCusinPovPfCJYp7i9ky75EHSBHhHJdBnz50H+mPT6u8mX/rgL
o5N+lB1e97EZOxPgyf5aEIxaPHVZDWXzrFhruynTJ+FAlOS9/RfHESA+XWZm5KOK
+V5a2u5xkRxaBem8GamInEpBJzvE0HZVV+7D9ARXo1cIDzAe4lyQyQES7eFqBT1f
lFeHNYvEGn5JFtYfgVwVXPoTWCIuTAXwHYlsMqP0zM4gS2fqOD61+3cADMVNrJ2M
jaH94eqOyMA8r3j8
-----END CERTIFICATE-----
